; Function Attrs: mustprogress uwtable
define void @_ZN5draco7Decoder22GetEncodedGeometryTypeEPNS_13DecoderBufferE(ptr dead_on_unwind noalias writable sret(%"class.draco::StatusOr.27") align 8 %0, ptr nocapture noundef readonly %1) local_unnamed_addr #3 align 2 personality ptr @__gxx_personality_v0 {
  %3 = alloca %"class.draco::DecoderBuffer", align 8
  %4 = alloca %"struct.draco::DracoHeader", align 2
  %5 = alloca %"class.draco::Status", align 8
  %6 = alloca %"class.draco::Status", align 8
  %7 = alloca %"class.std::__cxx11::basic_string", align 8
  %8 = alloca %"class.std::allocator", align 1
  call void @llvm.memcpy.p0.p0.i64(ptr noundef nonnull align 8 dereferenceable(56) %3, ptr noundef nonnull align 8 dereferenceable(56) %1, i64 56, i1 false)
  invoke void @_ZN5draco17PointCloudDecoder12DecodeHeaderEPNS_13DecoderBufferEPNS_11DracoHeaderE(ptr dead_on_unwind nonnull writable sret(%"class.draco::Status") align 8 %5, ptr noundef nonnull %3, ptr noundef nonnull %4)
          to label %9 unwind label %15

9:                                                ; preds = %2
  %10 = load i32, ptr %5, align 8
  %11 = icmp eq i32 %10, 0
  br i1 %11, label %19, label %12

12:                                               ; preds = %9
  store i32 %10, ptr %0, align 8
  %13 = getelementptr inbounds i8, ptr %0, i64 8
  %14 = getelementptr inbounds i8, ptr %5, i64 8
  invoke void @_ZNSt7__cxx1112basic_stringIcSt11char_traitsIcESaIcEEC1ERKS4_(ptr noundef nonnull align 8 dereferenceable(32) %13, ptr noundef nonnull align 8 dereferenceable(32) %14)
          to label %_ZN5draco8StatusOrINS_19EncodedGeometryTypeEEC2ERKNS_6StatusE.exit unwind label %17

15:                                               ; preds = %2
  %16 = landingpad { ptr, i32 }
          cleanup
  br label %44

17:                                               ; preds = %12
  %18 = landingpad { ptr, i32 }
          cleanup
  call void @_ZNSt7__cxx1112basic_stringIcSt11char_traitsIcESaIcEED1Ev(ptr noundef nonnull align 8 dereferenceable(32) %14) #14
  br label %44

_ZN5draco8StatusOrINS_19EncodedGeometryTypeEEC2ERKNS_6StatusE.exit: ; preds = %12
  call void @_ZNSt7__cxx1112basic_stringIcSt11char_traitsIcESaIcEED1Ev(ptr noundef nonnull align 8 dereferenceable(32) %14) #14
  br label %42

19:                                               ; preds = %9
  %20 = getelementptr inbounds i8, ptr %5, i64 8
  call void @_ZNSt7__cxx1112basic_stringIcSt11char_traitsIcESaIcEED1Ev(ptr noundef nonnull align 8 dereferenceable(32) %20) #14
  %21 = getelementptr inbounds i8, ptr %4, i64 7
  %22 = load i8, ptr %21, align 1
  %23 = icmp ugt i8 %22, 1
  br i1 %23, label %24, label %38

24:                                               ; preds = %19
  call void @_ZNSaIcEC1Ev(ptr noundef nonnull align 1 dereferenceable(1) %8) #14
  %25 = invoke noundef ptr @_ZNSt7__cxx1112basic_stringIcSt11char_traitsIcESaIcEE13_M_local_dataEv(ptr noundef nonnull align 8 dereferenceable(32) %7)
          to label %.noexc unwind label %31

.noexc:                                           ; preds = %24
  invoke void @_ZNSt7__cxx1112basic_stringIcSt11char_traitsIcESaIcEE12_Alloc_hiderC1EPcRKS3_(ptr noundef nonnull align 8 dereferenceable(8) %7, ptr noundef %25, ptr noundef nonnull align 1 dereferenceable(1) %8)
          to label %.noexc11 unwind label %31

.noexc11:                                         ; preds = %.noexc
  invoke void @_ZNSt7__cxx1112basic_stringIcSt11char_traitsIcESaIcEE12_M_constructIPKcEEvT_S8_St20forward_iterator_tag(ptr noundef nonnull align 8 dereferenceable(32) %7, ptr noundef nonnull @.str.1, ptr noundef nonnull getelementptr inbounds ([27 x i8], ptr @.str.1, i64 0, i64 26))
          to label %_ZNSt7__cxx1112basic_stringIcSt11char_traitsIcESaIcEEC2IS3_EEPKcRKS3_.exit unwind label %26

26:                                               ; preds = %.noexc11
  %27 = landingpad { ptr, i32 }
          cleanup
  call void @_ZNSaIcED2Ev(ptr noundef nonnull align 1 dereferenceable(1) %7) #14
  br label %.body

_ZNSt7__cxx1112basic_stringIcSt11char_traitsIcESaIcEEC2IS3_EEPKcRKS3_.exit: ; preds = %.noexc11
  store i32 -1, ptr %6, align 8
  %28 = getelementptr inbounds i8, ptr %6, i64 8
  invoke void @_ZNSt7__cxx1112basic_stringIcSt11char_traitsIcESaIcEEC1ERKS4_(ptr noundef nonnull align 8 dereferenceable(32) %28, ptr noundef nonnull align 8 dereferenceable(32) %7)
          to label %_ZN5draco6StatusC2ENS0_4CodeERKNSt7__cxx1112basic_stringIcSt11char_traitsIcESaIcEEE.exit unwind label %33

_ZN5draco6StatusC2ENS0_4CodeERKNSt7__cxx1112basic_stringIcSt11char_traitsIcESaIcEEE.exit: ; preds = %_ZNSt7__cxx1112basic_stringIcSt11char_traitsIcESaIcEEC2IS3_EEPKcRKS3_.exit
  %29 = load i32, ptr %6, align 8
  store i32 %29, ptr %0, align 8
  %30 = getelementptr inbounds i8, ptr %0, i64 8
  invoke void @_ZNSt7__cxx1112basic_stringIcSt11char_traitsIcESaIcEEC1ERKS4_(ptr noundef nonnull align 8 dereferenceable(32) %30, ptr noundef nonnull align 8 dereferenceable(32) %28)
          to label %_ZN5draco8StatusOrINS_19EncodedGeometryTypeEEC2ERKNS_6StatusE.exit14 unwind label %35

_ZN5draco8StatusOrINS_19EncodedGeometryTypeEEC2ERKNS_6StatusE.exit14: ; preds = %_ZN5draco6StatusC2ENS0_4CodeERKNSt7__cxx1112basic_stringIcSt11char_traitsIcESaIcEEE.exit
  call void @_ZNSt7__cxx1112basic_stringIcSt11char_traitsIcESaIcEED1Ev(ptr noundef nonnull align 8 dereferenceable(32) %28) #14
  call void @_ZNSt7__cxx1112basic_stringIcSt11char_traitsIcESaIcEED1Ev(ptr noundef nonnull align 8 dereferenceable(32) %7) #14
  call void @_ZNSaIcED1Ev(ptr noundef nonnull align 1 dereferenceable(1) %8) #14
  br label %42

31:                                               ; preds = %.noexc, %24
  %32 = landingpad { ptr, i32 }
          cleanup
  br label %.body

33:                                               ; preds = %_ZNSt7__cxx1112basic_stringIcSt11char_traitsIcESaIcEEC2IS3_EEPKcRKS3_.exit
  %34 = landingpad { ptr, i32 }
          cleanup
  br label %37

35:                                               ; preds = %_ZN5draco6StatusC2ENS0_4CodeERKNSt7__cxx1112basic_stringIcSt11char_traitsIcESaIcEEE.exit
  %36 = landingpad { ptr, i32 }
          cleanup
  call void @_ZNSt7__cxx1112basic_stringIcSt11char_traitsIcESaIcEED1Ev(ptr noundef nonnull align 8 dereferenceable(32) %28) #14
  br label %37

37:                                               ; preds = %35, %33
  %.pn = phi { ptr, i32 } [ %36, %35 ], [ %34, %33 ]
  call void @_ZNSt7__cxx1112basic_stringIcSt11char_traitsIcESaIcEED1Ev(ptr noundef nonnull align 8 dereferenceable(32) %7) #14
  br label %.body

.body:                                            ; preds = %31, %26, %37
  %.pn.pn = phi { ptr, i32 } [ %.pn, %37 ], [ %32, %31 ], [ %27, %26 ]
  call void @_ZNSaIcED1Ev(ptr noundef nonnull align 1 dereferenceable(1) %8) #14
  br label %44

38:                                               ; preds = %19
  %39 = zext nneg i8 %22 to i32
  store i32 0, ptr %0, align 8, !alias.scope !16
  %40 = getelementptr inbounds i8, ptr %0, i64 8
  call void @_ZNSt7__cxx1112basic_stringIcSt11char_traitsIcESaIcEEC1Ev(ptr noundef nonnull align 8 dereferenceable(32) %40) #14
  %41 = getelementptr inbounds i8, ptr %0, i64 40
  store i32 %39, ptr %41, align 8
  br label %42

42:                                               ; preds = %_ZN5draco8StatusOrINS_19EncodedGeometryTypeEEC2ERKNS_6StatusE.exit, %38, %_ZN5draco8StatusOrINS_19EncodedGeometryTypeEEC2ERKNS_6StatusE.exit14
  %43 = getelementptr inbounds i8, ptr %3, i64 24
  call void @_ZN5draco13DecoderBuffer10BitDecoderD1Ev(ptr noundef nonnull align 8 dereferenceable(24) %43) #14
  ret void

44:                                               ; preds = %.body, %17, %15
  %.pn.pn.pn = phi { ptr, i32 } [ %.pn.pn, %.body ], [ %16, %15 ], [ %18, %17 ]
  %45 = getelementptr inbounds i8, ptr %3, i64 24
  call void @_ZN5draco13DecoderBuffer10BitDecoderD1Ev(ptr noundef nonnull align 8 dereferenceable(24) %45) #14
  resume { ptr, i32 } %.pn.pn.pn
}